target datalayout = "e-m:e-p270:32:32-p271:32:32-p272:64:64-i64:64-i128:128-f80:128-n8:16:32:64-S128"
target triple = "x86_64-pc-linux-gnu"

%struct.job_record = type { i32, ptr, ptr, ptr, ptr, i16, i32, i32, i32, ptr, i32, ptr, ptr, i16, ptr, double, i64, ptr, ptr, ptr, ptr, ptr, ptr, i32, ptr, i32, i64, i64, i32, i32, ptr, i16, i64, i64, i8, i32, ptr, ptr, ptr, ptr, ptr, ptr, ptr, ptr, i32, ptr, ptr, i32, ptr, i32, ptr, i32, ptr, i32, ptr, ptr, ptr, ptr, ptr, ptr, i32, i16, i64, ptr, ptr, ptr, ptr, %struct.acct_policy_limit_set_t, i16, ptr, ptr, ptr, ptr, ptr, i32, ptr, ptr, ptr, ptr, ptr, i32, i32, ptr, ptr, ptr, i16, ptr, ptr, i8, ptr, ptr, i64, i64, i8, i32, i32, i8, i32, ptr, i32, i64, i32, ptr, ptr, ptr, i8, i16, i64, i32, ptr, ptr, ptr, ptr, ptr, i16, i32, ptr, ptr, ptr, ptr, i32, ptr, i32, i16, i64, ptr, i32, i32, ptr, i64, ptr, ptr, i64, i32, i32, i64, i32, i32, ptr, ptr, ptr, ptr, ptr, ptr, ptr, ptr, ptr, ptr, ptr, ptr, i32, ptr, i16, i16, i16, i16, ptr, i32, i32, i8, i64 }
%struct.acct_policy_limit_set_t = type { i16, i16, ptr }
%struct.job_resources = type { ptr, ptr, i32, ptr, ptr, ptr, ptr, ptr, i16, ptr, ptr, i32, i32, ptr, i32, ptr, i32, ptr, ptr, ptr, i16, i8 }

; Function Attrs: nounwind uwtable
define internal void @_realloc_nodes(ptr noundef %0, ptr noundef %1) #0 {
  %3 = alloca ptr, align 8
  %4 = alloca ptr, align 8
  %5 = alloca ptr, align 8
  %6 = alloca ptr, align 8
  %7 = alloca i32, align 4
  %8 = alloca i32, align 4
  store ptr %0, ptr %3, align 8
  store ptr %1, ptr %4, align 8
  call void @llvm.lifetime.start.p0(i64 8, ptr %5) #13
  call void @llvm.lifetime.start.p0(i64 8, ptr %6) #13
  %9 = load ptr, ptr %3, align 8
  %10 = getelementptr inbounds nuw %struct.job_record, ptr %9, i32 0, i32 59
  %11 = load ptr, ptr %10, align 8
  %12 = icmp ne ptr %11, null
  br i1 %12, label %13, label %20

13:                                               ; preds = %2
  %14 = load ptr, ptr %3, align 8
  %15 = getelementptr inbounds nuw %struct.job_record, ptr %14, i32 0, i32 59
  %16 = load ptr, ptr %15, align 8
  %17 = getelementptr inbounds nuw %struct.job_resources, ptr %16, i32 0, i32 13
  %18 = load ptr, ptr %17, align 8
  %19 = icmp ne ptr %18, null
  br i1 %19, label %21, label %20

20:                                               ; preds = %13, %2
  store i32 1, ptr %7, align 4
  br label %47

21:                                               ; preds = %13
  %22 = load ptr, ptr %3, align 8
  %23 = getelementptr inbounds nuw %struct.job_record, ptr %22, i32 0, i32 59
  %24 = load ptr, ptr %23, align 8
  %25 = getelementptr inbounds nuw %struct.job_resources, ptr %24, i32 0, i32 13
  %26 = load ptr, ptr %25, align 8
  store ptr %26, ptr %5, align 8
  call void @llvm.lifetime.start.p0(i64 4, ptr %8) #13
  store i32 0, ptr %8, align 4
  br label %27

27:                                               ; preds = %42, %21
  %28 = load ptr, ptr %5, align 8
  %29 = call ptr @next_node_bitmap(ptr noundef %28, ptr noundef %8)
  store ptr %29, ptr %6, align 8
  %30 = icmp ne ptr %29, null
  br i1 %30, label %32, label %31

31:                                               ; preds = %27
  store i32 2, ptr %7, align 4
  call void @llvm.lifetime.end.p0(i64 4, ptr %8) #13
  br label %45

32:                                               ; preds = %27
  %33 = load ptr, ptr %4, align 8
  %34 = load i32, ptr %8, align 4
  %35 = sext i32 %34 to i64
  %36 = call i32 @slurm_bit_test(ptr noundef %33, i64 noundef %35)
  %37 = icmp ne i32 %36, 0
  br i1 %37, label %38, label %39

38:                                               ; preds = %32
  br label %42

39:                                               ; preds = %32
  %40 = load ptr, ptr %6, align 8
  %41 = load ptr, ptr %3, align 8
  call void @make_node_alloc(ptr noundef %40, ptr noundef %41)
  br label %42

42:                                               ; preds = %39, %38
  %43 = load i32, ptr %8, align 4
  %44 = add nsw i32 %43, 1
  store i32 %44, ptr %8, align 4
  br label %27, !llvm.loop !130

45:                                               ; preds = %31
  %46 = load ptr, ptr %3, align 8
  call void @node_mgr_make_node_blocked(ptr noundef %46, i1 noundef zeroext true)
  store i32 0, ptr %7, align 4
  br label %47

47:                                               ; preds = %45, %20
  call void @llvm.lifetime.end.p0(i64 8, ptr %6) #13
  call void @llvm.lifetime.end.p0(i64 8, ptr %5) #13
  %48 = load i32, ptr %7, align 4
  switch i32 %48, label %50 [
    i32 0, label %49
    i32 1, label %49
  ]

49:                                               ; preds = %47, %47
  ret void

50:                                               ; preds = %47
  unreachable
}