; Function Attrs: nounwind uwtable
define internal fastcc void @_realloc_nodes(ptr noundef nonnull %0, ptr noundef %1) unnamed_addr #0 {
  %3 = alloca i32, align 4
  %4 = getelementptr inbounds nuw i8, ptr %0, i64 440
  %5 = load ptr, ptr %4, align 8
  %.not = icmp eq ptr %5, null
  br i1 %.not, label %20, label %6

6:                                                ; preds = %2
  %7 = getelementptr inbounds nuw i8, ptr %5, i64 96
  %8 = load ptr, ptr %7, align 8
  %.not10 = icmp eq ptr %8, null
  br i1 %.not10, label %20, label %9

9:                                                ; preds = %6
  call void @llvm.lifetime.start.p0(i64 4, ptr nonnull %3) #27
  store i32 0, ptr %3, align 4
  %10 = call ptr @next_node_bitmap(ptr noundef nonnull %8, ptr noundef nonnull %3) #27
  %.not1113 = icmp eq ptr %10, null
  br i1 %.not1113, label %._crit_edge, label %.lr.ph

._crit_edge:                                      ; preds = %16, %9
  call void @llvm.lifetime.end.p0(i64 4, ptr nonnull %3) #27
  call void @node_mgr_make_node_blocked(ptr noundef nonnull %0, i1 noundef zeroext true) #27
  br label %20

.lr.ph:                                           ; preds = %9, %16
  %11 = phi ptr [ %19, %16 ], [ %10, %9 ]
  %12 = load i32, ptr %3, align 4
  %13 = sext i32 %12 to i64
  %14 = call i32 @slurm_bit_test(ptr noundef %1, i64 noundef %13) #27
  %.not12 = icmp eq i32 %14, 0
  br i1 %.not12, label %15, label %16

15:                                               ; preds = %.lr.ph
  call void @make_node_alloc(ptr noundef nonnull %11, ptr noundef nonnull %0) #27
  br label %16

16:                                               ; preds = %.lr.ph, %15
  %17 = load i32, ptr %3, align 4
  %18 = add nsw i32 %17, 1
  store i32 %18, ptr %3, align 4
  %19 = call ptr @next_node_bitmap(ptr noundef nonnull %8, ptr noundef nonnull %3) #27
  %.not11 = icmp eq ptr %19, null
  br i1 %.not11, label %._crit_edge, label %.lr.ph, !llvm.loop !128

20:                                               ; preds = %2, %6, %._crit_edge
  ret void
}